; Function Attrs: mustprogress uwtable
define hidden void @_ZN7datalog8mk_slice12update_rulesERKNS_8rule_setERS1_(ptr noundef nonnull align 8 dereferenceable(168) %0, ptr noundef nonnull readonly align 8 captures(none) dereferenceable(248) %1, ptr noundef nonnull align 8 dereferenceable(248) %2) local_unnamed_addr #3 align 2 {
  %4 = getelementptr inbounds nuw i8, ptr %1, i64 24
  br label %5

5:                                                ; preds = %14, %3
  %indvars.iv = phi i64 [ %indvars.iv.next, %14 ], [ 0, %3 ]
  %6 = load ptr, ptr %4, align 8, !tbaa !254
  %7 = icmp eq ptr %6, null
  br i1 %7, label %_ZNK7datalog8rule_set13get_num_rulesEv.exit, label %8

8:                                                ; preds = %5
  %9 = getelementptr inbounds i8, ptr %6, i64 -4
  %10 = load i32, ptr %9, align 4, !tbaa !231
  %11 = zext i32 %10 to i64
  br label %_ZNK7datalog8rule_set13get_num_rulesEv.exit

_ZNK7datalog8rule_set13get_num_rulesEv.exit:      ; preds = %5, %8
  %.0.i.i.i = phi i64 [ %11, %8 ], [ 0, %5 ]
  %12 = icmp samesign ult i64 %indvars.iv, %.0.i.i.i
  br i1 %12, label %14, label %13

13:                                               ; preds = %_ZNK7datalog8rule_set13get_num_rulesEv.exit
  ret void

14:                                               ; preds = %_ZNK7datalog8rule_set13get_num_rulesEv.exit
  %15 = getelementptr inbounds nuw ptr, ptr %6, i64 %indvars.iv
  %16 = load ptr, ptr %15, align 8, !tbaa !256
  tail call void @_ZN7datalog8mk_slice11update_ruleERNS_4ruleERNS_8rule_setE(ptr noundef nonnull align 8 dereferenceable(168) %0, ptr noundef nonnull align 8 dereferenceable(80) %16, ptr noundef nonnull align 8 dereferenceable(248) %2)
  %indvars.iv.next = add nuw nsw i64 %indvars.iv, 1
  br label %5, !llvm.loop !424
}